target datalayout = "e-m:e-p270:32:32-p271:32:32-p272:64:64-i64:64-i128:128-f80:128-n8:16:32:64-S128"
target triple = "x86_64-pc-linux-gnu"

; Function Attrs: mustprogress nounwind uwtable
define dso_local noundef zeroext i1 @_ZN4llvm22ConvertCodePointToUTF8EjRPc(i32 noundef %0, ptr noundef nonnull align 8 dereferenceable(8) %1) #0 {
  %3 = alloca i1, align 1
  %4 = alloca i32, align 4
  %5 = alloca ptr, align 8
  %6 = alloca ptr, align 8
  %7 = alloca ptr, align 8
  %8 = alloca ptr, align 8
  %9 = alloca ptr, align 8
  %10 = alloca i32, align 4
  store i32 %0, ptr %4, align 4
  store ptr %1, ptr %5, align 8
  store ptr %4, ptr %6, align 8
  %11 = load ptr, ptr %6, align 8
  %12 = getelementptr inbounds i32, ptr %11, i64 1
  store ptr %12, ptr %7, align 8
  %13 = load ptr, ptr %5, align 8
  %14 = load ptr, ptr %13, align 8
  store ptr %14, ptr %8, align 8
  %15 = load ptr, ptr %8, align 8
  %16 = getelementptr inbounds i8, ptr %15, i64 4
  store ptr %16, ptr %9, align 8
  %17 = load ptr, ptr %7, align 8
  %18 = load ptr, ptr %9, align 8
  %19 = call noundef i32 @_ZN4llvm18ConvertUTF32toUTF8EPPKjS1_PPhS3_NS_15ConversionFlagsE(ptr noundef %6, ptr noundef %17, ptr noundef %8, ptr noundef %18, i32 noundef 0)
  store i32 %19, ptr %10, align 4
  %20 = load i32, ptr %10, align 4
  %21 = icmp ne i32 %20, 0
  br i1 %21, label %22, label %23

22:                                               ; preds = %2
  store i1 false, ptr %3, align 1
  br label %26

23:                                               ; preds = %2
  %24 = load ptr, ptr %8, align 8
  %25 = load ptr, ptr %5, align 8
  store ptr %24, ptr %25, align 8
  store i1 true, ptr %3, align 1
  br label %26

26:                                               ; preds = %23, %22
  %27 = load i1, ptr %3, align 1
  ret i1 %27
}