; Function Attrs: mustprogress nounwind uwtable
define dso_local noundef zeroext i1 @_ZN4llvm22ConvertCodePointToUTF8EjRPc(i32 noundef %0, ptr nocapture noundef nonnull align 8 dereferenceable(8) %1) local_unnamed_addr #0 {
  %3 = alloca i32, align 4
  %4 = alloca ptr, align 8
  %5 = alloca ptr, align 8
  store i32 %0, ptr %3, align 4
  store ptr %3, ptr %4, align 8
  %6 = getelementptr inbounds i8, ptr %3, i64 4
  %7 = load ptr, ptr %1, align 8
  store ptr %7, ptr %5, align 8
  %8 = getelementptr inbounds i8, ptr %7, i64 4
  %9 = call noundef i32 @_ZN4llvm18ConvertUTF32toUTF8EPPKjS1_PPhS3_NS_15ConversionFlagsE(ptr noundef nonnull %4, ptr noundef nonnull %6, ptr noundef nonnull %5, ptr noundef nonnull %8, i32 noundef 0) #13
  %.not = icmp eq i32 %9, 0
  br i1 %.not, label %10, label %12

10:                                               ; preds = %2
  %11 = load ptr, ptr %5, align 8
  store ptr %11, ptr %1, align 8
  br label %12

12:                                               ; preds = %2, %10
  ret i1 %.not
}